Certificate:
    Data:
        Version: 3 (0x2)
        Serial Number: 1 (0x1)
    Signature Algorithm: sha256WithRSAEncryption
        Issuer: DC=com, DC=example, O=Example Com Inc., OU=Example Com Inc. Root CA, CN=Example Com Inc. Root CA
        Validity
            Not Before: Feb  6 12:59:29 2017 GMT
            Not After : Feb  6 12:59:29 2027 GMT
        Subject: DC=com, DC=example, O=Example Com Inc., OU=Example Com Inc. Root CA, CN=Example Com Inc. Root CA
        Subject Public Key Info:
            Public Key Algorithm: rsaEncryption
                Public-Key: (2048 bit)
                Modulus:
                    00:e5:10:bd:ab:60:39:34:90:8e:4b:5c:d6:41:06:
                    12:9e:07:59:2a:66:58:e1:8d:6c:cc:e9:ad:c7:25:
                    db:14:e7:f3:f3:9a:4b:07:b7:a3:12:e3:2d:02:71:
                    4c:d1:db:11:33:03:a7:c8:69:2f:20:34:31:92:53:
                    43:9e:c1:be:cd:70:74:16:a0:4c:c3:a9:55:aa:f5:
                    ba:52:ab:a7:f0:8e:38:d9:48:b6:e7:5e:e6:3a:cb:
                    f7:6a:13:cf:2a:84:03:69:fa:27:49:ba:b2:0f:d1:
                    57:75:ba:33:93:8d:4e:50:a1:1b:25:74:b7:88:47:
                    4e:a9:fe:51:72:f3:d3:a0:a3:5c:c1:6f:2a:d8:34:
                    73:49:0f:c5:03:96:89:b8:38:09:8e:32:a3:c1:f4:
                    b9:7f:5d:11:ce:37:78:a1:48:19:b7:98:40:42:74:
                    47:ba:78:5a:1c:6a:a5:55:fe:8a:d9:3e:12:9b:49:
                    b4:53:96:0a:ef:4c:30:cb:97:99:5e:85:0c:62:a7:
                    52:b3:30:dd:7e:df:c2:1f:82:b2:52:98:a2:19:bb:
                    81:e6:c2:31:ab:f1:e5:84:0a:87:3d:3a:5d:5b:b0:
                    34:8e:e1:96:95:5e:06:f0:cb:8e:f9:b1:b9:7a:85:
                    66:87:c2:fc:95:45:44:3a:9b:c2:32:76:18:dc:46:
                    58:17
                Exponent: 65537 (0x10001)
        X509v3 extensions:
            X509v3 Key Usage: critical
                Certificate Sign, CRL Sign
            X509v3 Basic Constraints: critical
                CA:TRUE
            X509v3 Subject Key Identifier: 
                3A:F2:3C:51:43:16:84:9B:8B:82:A6:2E:C9:FA:C6:46:2A:30:18:96
            X509v3 Authority Key Identifier: 
                keyid:3A:F2:3C:51:43:16:84:9B:8B:82:A6:2E:C9:FA:C6:46:2A:30:18:96

    Signature Algorithm: sha256WithRSAEncryption
         7c:7d:91:cd:24:2b:c3:28:d8:c5:bb:9d:c2:69:5f:7d:a4:b5:
         ce:32:2b:71:b4:4e:41:ae:79:87:b1:cb:62:b8:c6:eb:fc:e9:
         43:d1:51:64:7a:2f:26:af:01:ea:6e:49:0b:6d:3c:cc:b1:26:
         fc:4c:29:c9:0c:2f:c1:29:c5:7d:24:07:c4:69:33:b3:0f:aa:
         54:64:d0:f9:87:c3:59:1e:66:cd:26:d5:58:6e:3a:03:8e:23:
         68:84:4f:8c:b6:02:ad:66:94:db:6b:c3:df:7e:bb:53:1e:b0:
         57:28:43:6a:42:c0:27:a9:e8:7f:da:45:d9:06:86:27:34:70:
         aa:2d:62:f9:e6:01:e2:11:50:fa:7b:7c:28:ca:90:69:8a:b3:
         1f:9e:4c:77:3d:bd:11:e8:b6:cd:11:d5:3b:9a:42:f3:8f:f7:
         1e:d8:54:aa:8f:7c:64:52:09:61:04:65:61:54:21:12:49:7d:
         ab:21:1c:04:d1:40:70:21:d9:96:ee:0b:5c:98:c3:5a:90:c2:
         a6:7d:80:e9:50:28:27:81:fe:f9:9a:a0:2a:7a:f9:92:bf:53:
         32:32:17:ad:47:8b:dd:ab:0e:49:f8:9d:f0:58:d5:aa:27:c2:
         75:d7:37:23:1c:0b:ce:9d:56:ec:18:c0:57:90:4d:2e:bc:cb:
         fd:57:ed:ee
-----BEGIN CERTIFICATE-----
MIID/jCCAuagAwIBAgIBATANBgkqhkiG9w0BAQsFADCBjzETMBEGCgmSJomT8ixk
ARkWA2NvbTEXMBUGCgmSJomT8ixkARkWB2V4YW1wbGUxGTAXBgNVBAoMEEV4YW1w
bGUgQ29tIEluYy4xITAfBgNVBAsMGEV4YW1wbGUgQ29tIEluYy4gUm9vdCBDQTEh
MB8GA1UEAwwYRXhhbXBsZSBDb20gSW5jLiBSb290IENBMB4XDTE3MDIwNjEyNTky
OVoXDTI3MDIwNjEyNTkyOVowgY8xEzARBgoJkiaJk/IsZAEZFgNjb20xFzAVBgoJ
kiaJk/IsZAEZFgdleGFtcGxlMRkwFwYDVQQKDBBFeGFtcGxlIENvbSBJbmMuMSEw
HwYDVQQLDBhFeGFtcGxlIENvbSBJbmMuIFJvb3QgQ0ExITAfBgNVBAMMGEV4YW1w
bGUgQ29tIEluYy4gUm9vdCBDQTCCASIwDQYJKoZIhvcNAQEBBQADggEPADCCAQoC
ggEBAOUQvatgOTSQjktc1kEGEp4HWSpmWOGNbMzprccl2xTn8/OaSwe3oxLjLQJx
TNHbETMDp8hpLyA0MZJTQ57Bvs1wdBagTMOpVar1ulKrp/COONlItude5jrL92oT
zyqEA2n6J0m6sg/RV3W6M5ONTlChGyV0t4hHTqn+UXLz06CjXMFvKtg0c0kPxQOW
ibg4CY4yo8H0uX9dEc43eKFIGbeYQEJ0R7p4WhxqpVX+itk+EptJtFOWCu9MMMuX
mV6FDGKnUrMw3X7fwh+CslKYohm7gebCMavx5YQKhz06XVuwNI7hlpVeBvDLjvmx
uXqFZofC/JVFRDqbwjJ2GNxGWBcCAwEAAaNjMGEwDgYDVR0PAQH/BAQDAgEGMA8G
A1UdEwEB/wQFMAMBAf8wHQYDVR0OBBYEFDryPFFDFoSbi4KmLsn6xkYqMBiWMB8G
A1UdIwQYMBaAFDryPFFDFoSbi4KmLsn6xkYqMBiWMA0GCSqGSIb3DQEBCwUAA4IB
AQB8fZHNJCvDKNjFu53CaV99pLXOMitxtE5BrnmHsctiuMbr/OlD0VFkei8mrwHq
bkkLbTzMsSb8TCnJDC/BKcV9JAfEaTOzD6pUZND5h8NZHmbNJtVYbjoDjiNohE+M
tgKtZpTba8PffrtTHrBXKENqQsAnqeh/2kXZBoYnNHCqLWL55gHiEVD6e3woypBp
irMfnkx3Pb0R6LbNEdU7mkLzj/ce2FSqj3xkUglhBGVhVCESSX2rIRwE0UBwIdmW
7gtcmMNakMKmfYDpUCgngf75mqAqevmSv1MyMhetR4vdqw5J+J3wWNWqJ8J11zcj
HAvOnVbsGMBXkE0uvMv9V+3u
-----END CERTIFICATE-----
